EXPORTS
    _PutPixel @1
    _PutPixel16 @2
    _PutPixel24 @3
    _PutPixel32 @4
    _PutPixel8 @5
    _PutPixelAlpha @6
    _PutPixelX @7
    _Z10sge_AALineP11SDL_Surfacesssshhh @8
    _Z10sge_BezierP11SDL_Surfacessssssssihhh @9
    _Z10sge_CircleP11SDL_Surfacessshhh @10
    _Z10sge_DoLineP11SDL_SurfacesssshhhPFvS0_ssjE @11
    _Z10sge_TrigonP11SDL_Surfacesssssshhh @12
    _Z11sge_EllipseP11SDL_Surfacesssshhh @13
    _Z12sge_AABezierP11SDL_Surfacessssssssihhh @14
    _Z12sge_AACircleP11SDL_Surfacessshhh @15
    _Z12sge_AATrigonP11SDL_Surfacesssssshhh @16
    _Z12sge_DoCircleP11SDL_SurfacessshhhPFvS0_ssjE @17
    _Z12sge_PutPixelP11SDL_Surfacesshhh @18
    _Z13sge_AAEllipseP11SDL_Surfacesssshhh @19
    _Z13sge_DoEllipseP11SDL_SurfacesssshhhPFvS0_ssjE @20
    _Z13sge_FloodFillP11SDL_Surfacesshhh @21
    _Z13sge_LineAlphaP11SDL_Surfacesssshhhh @22
    _Z13sge_RectAlphaP11SDL_Surfacesssshhhh @23
    _Z14_PutPixelAlphaP11SDL_Surfacesshhhh @24
    _Z14sge_FilledRectP11SDL_Surfacesssshhh @25
    _Z14sge_HLineAlphaP11SDL_Surfacessshhhh @26
    _Z14sge_VLineAlphaP11SDL_Surfacessshhhh @27
    _Z14sge_text_inputP15sge_TextSurfaceh @28
    _Z15sge_AALineAlphaP11SDL_Surfacesssshhhh @29
    _Z15sge_BezierAlphaP11SDL_Surfacessssssssihhhh @30
    _Z15sge_CircleAlphaP11SDL_Surfacessshhhh @31
    _Z15sge_TrigonAlphaP11SDL_Surfacesssssshhhh @32
    _Z16sge_ClearSurfaceP11SDL_Surfacehhh @33
    _Z16sge_EllipseAlphaP11SDL_Surfacesssshhhh @34
    _Z16sge_FilledCircleP11SDL_Surfacessshhh @35
    _Z16sge_FilledTrigonP11SDL_Surfacesssssshhh @36
    _Z17sge_AABezierAlphaP11SDL_Surfacessssssssihhhh @37
    _Z17sge_AACircleAlphaP11SDL_Surfacessshhhh @38
    _Z17sge_AATrigonAlphaP11SDL_Surfacesssssshhhh @39
    _Z17sge_FilledEllipseP11SDL_Surfacesssshhh @40
    _Z17sge_FilledPolygonP11SDL_SurfacetPsS1_hhh @41
    _Z17sge_PutPixelAlphaP11SDL_Surfacesshhhh @42
    _Z17sge_bbcheck_shapeP9sge_shapeS0_ @43
    _Z18sge_AAEllipseAlphaP11SDL_Surfacesssshhhh @44
    _Z18sge_AAFilledCircleP11SDL_Surfacessshhh @45
    _Z19sge_AAFilledEllipseP11SDL_Surfacesssshhh @46
    _Z19sge_AAFilledPolygonP11SDL_SurfacetPsS1_hhh @47
    _Z19sge_FilledRectAlphaP11SDL_Surfacesssshhhh @48
    _Z21sge_FilledCircleAlphaP11SDL_Surfacessshhhh @49
    _Z21sge_FilledTrigonAlphaP11SDL_Surfacesssssshhhh @50
    _Z22sge_FilledEllipseAlphaP11SDL_Surfacesssshhhh @51
    _Z22sge_FilledPolygonAlphaP11SDL_SurfacetPsS1_hhhh @52
    _Z8sge_LineP11SDL_Surfacesssshhh @53
    _Z8sge_RectP11SDL_Surfacesssshhh @54
    _Z9_PutPixelP11SDL_Surfacesshhh @55
    _Z9sge_HLineP11SDL_Surfacessshhh @56
    _Z9sge_VLineP11SDL_Surfacessshhh @57
    _ZN10sge_screen11add_shape_pEP9sge_shape @58
    _ZN10sge_screen14remove_shape_pEP9sge_shape @59
    _ZN10sge_screen6updateEv @60
    _ZN10sge_screen8add_rectE8SDL_Rect @61
    _ZN10sge_screen8add_rectEssjj @62
    _ZN10sge_screen9add_shapeEP9sge_shape @63
    _ZN10sge_screen9clear_allEv @64
    _ZN10sge_screenC1EP11SDL_Surface @65
    _ZN10sge_screenC2EP11SDL_Surface @66
    _ZN10sge_sprite12check_borderEv @67
    _ZN10sge_sprite4moveEss @68
    _ZN10sge_sprite6updateEj @69
    _ZN10sge_sprite6updateEv @70
    _ZN10sge_sprite7move_toEss @71
    _ZN11sge_ssprite10last_frameEv @72
    _ZN11sge_ssprite10skip_frameEi @73
    _ZN11sge_ssprite11first_frameEv @74
    _ZN11sge_ssprite12check_borderEv @75
    _ZN11sge_ssprite6updateEv @76
    _ZN11sge_ssprite7set_seqEiiNS_12playing_modeE @77
    _ZN11sge_ssprite9add_frameEP11SDL_Surface @78
    _ZN11sge_ssprite9add_frameEP11SDL_SurfaceP9sge_cdata @79
    _ZN11sge_ssprite9reset_seqEv @80
    _ZN11sge_sspriteC1EP11SDL_SurfaceS1_P9sge_cdatass @81
    _ZN11sge_sspriteC1EP11SDL_SurfaceS1_ss @82
    _ZN11sge_sspriteC2EP11SDL_SurfaceS1_P9sge_cdatass @83
    _ZN11sge_sspriteC2EP11SDL_SurfaceS1_ss @84
    _ZN11sge_sspriteD0Ev @85
    _ZN11sge_sspriteD1Ev @86
    _ZN11sge_sspriteD2Ev @87
    _ZN11sge_surface10check_warpEv @88
    _ZN11sge_surface10warp_clearEP11SDL_Surfacess @89
    _ZN11sge_surface10warp_clearEj @90
    _ZN11sge_surface11UpdateRectsEv @91
    _ZN11sge_surface11warp_updateE8SDL_Rect @92
    _ZN11sge_surface12check_borderEv @93
    _ZN11sge_surface4drawEv @94
    _ZN11sge_surface4moveEss @95
    _ZN11sge_surface5clearEP11SDL_Surfacess @96
    _ZN11sge_surface5clearEj @97
    _ZN11sge_surface7move_toEss @98
    _ZN11sge_surface8get_warpE8SDL_RectRS0_S1_S1_S1_ @99
    _ZN11sge_surface9warp_drawEv @100
    _ZN11sge_surfaceC1EP11SDL_SurfaceS1_ss @101
    _ZN11sge_surfaceC2EP11SDL_SurfaceS1_ss @102
    _ZN11sge_surfaceD0Ev @103
    _ZN11sge_surfaceD1Ev @104
    _ZN11sge_surfaceD2Ev @105
    _ZN14sge_TextEditor10clear_textEv @106
    _ZN14sge_TextEditor10get_stringEb @107
    _ZN14sge_TextEditor10move_startEv @108
    _ZN14sge_TextEditor11change_textESs @109
    _ZN14sge_TextEditor11remove_leftEv @110
    _ZN14sge_TextEditor12change_textfEPKcz @111
    _ZN14sge_TextEditor12get_ucstringEb @112
    _ZN14sge_TextEditor12remove_rightEv @113
    _ZN14sge_TextEditor13change_uctextEPt @114
    _ZN14sge_TextEditor5checkEP9SDL_Event @115
    _ZN14sge_TextEditor5nswapEPNS_4nodeES1_ @116
    _ZN14sge_TextEditor6insertEt @117
    _ZN14sge_TextEditor8move_endEv @118
    _ZN14sge_TextEditor8new_nodeEPNS_4nodeES1_t @119
    _ZN14sge_TextEditorC1Ev @120
    _ZN14sge_TextEditorC2Ev @121
    _ZN14sge_TextEditorD0Ev @122
    _ZN14sge_TextEditorD1Ev @123
    _ZN14sge_TextEditorD2Ev @124
    _ZN14sge_TextSprite15set_textSurfaceEP11SDL_Surface @125
    _ZN14sge_TextSprite4drawEv @126
    _ZN15sge_TextSsprite15set_textSurfaceEP11SDL_Surface @127
    _ZN15sge_TextSsprite4drawEv @128
    _ZN15sge_TextSurface15set_textSurfaceEP11SDL_Surface @129
    _ZN15sge_TextSurface4drawEv @130
    _ZN8sge_text10set_bmFontEP11sge_bmpFont @131
    _ZN8sge_text11render_textEP11SDL_Surfacess @132
    _ZN8sge_text15get_textSurfaceEb @133
    _ZN8sge_text15set_textSurfaceEP11SDL_Surface @134
    _ZN8sge_text18update_textSurfaceEb @135
    _ZN8sge_textD0Ev @136
    _ZN8sge_textD1Ev @137
    _ZTV10sge_sprite @138 DATA
    _ZTV11sge_ssprite @139 DATA
    _ZTV11sge_surface @140 DATA
    _ZTV14sge_TextEditor @141 DATA
    _ZTV14sge_TextSprite @142 DATA
    _ZTV15sge_TextSsprite @143 DATA
    _ZTV15sge_TextSurface @144 DATA
    _ZTV8sge_text @145 DATA
    _ZThn60_N15sge_TextSsprite4drawEv @146
    _ZThn60_N15sge_TextSspriteD0Ev @147
    _ZThn60_N15sge_TextSspriteD1Ev @148
    _ZThn60_N15sge_TextSurface4drawEv @149
    _ZThn60_N15sge_TextSurfaceD0Ev @150
    _ZThn60_N15sge_TextSurfaceD1Ev @151
    _ZThn64_N14sge_TextSprite4drawEv @152
    _ZThn64_N14sge_TextSpriteD0Ev @153
    _ZThn64_N14sge_TextSpriteD1Ev @154
    _sge_bbcheck @155
    _sge_cmcheck @156
    sge_AABezier @157
    sge_AABezierAlpha @158
    sge_AACircle @159
    sge_AACircleAlpha @160
    sge_AAEllipse @161
    sge_AAEllipseAlpha @162
    sge_AAFadedPolygon @163
    sge_AAFilledCircle @164
    sge_AAFilledEllipse @165
    sge_AAFilledPolygon @166
    sge_AALine @167
    sge_AALineAlpha @168
    sge_AATrigon @169
    sge_AATrigonAlpha @170
    sge_AAmcLine @171
    sge_AAmcLineAlpha @172
    sge_AlphaFader @173
    sge_BF_CloseFont @174
    sge_BF_CreateFont @175
    sge_BF_GetHeight @176
    sge_BF_GetWidth @177
    sge_BF_OpenFont @178
    sge_BF_SetAlpha @179
    sge_BF_SetColor @180
    sge_BF_TextSize @181
    sge_BF_input @182
    sge_BF_inputAlpha @183
    sge_BF_inputAlpha_UNI @184
    sge_BF_input_UNI @185
    sge_BF_textout @186
    sge_BF_textoutf @187
    sge_Bezier @188
    sge_BezierAlpha @189
    sge_Blit @190
    sge_BlitTransparent @191
    sge_CalcYPitch @192
    sge_CalibrateDelay @193
    sge_Circle @194
    sge_CircleAlpha @195
    sge_ClearSurface @196
    sge_CreateAlphaSurface @197
    sge_Delay @198
    sge_DelayRes @199
    sge_DoCircle @200
    sge_DoEllipse @201
    sge_DoLine @202
    sge_DomcLine @203
    sge_Ellipse @204
    sge_EllipseAlpha @205
    sge_FadedLine @206
    sge_FadedPolygon @207
    sge_FadedPolygonAlpha @208
    sge_FadedTexturedLine @209
    sge_FadedTexturedTrigon @210
    sge_FadedTexturedTrigonColorKeys @211
    sge_FadedTrigon @212
    sge_Fader @213
    sge_FillPaletteEntry @214
    sge_FilledCircle @215
    sge_FilledCircleAlpha @216
    sge_FilledEllipse @217
    sge_FilledEllipseAlpha @218
    sge_FilledPolygon @219
    sge_FilledPolygonAlpha @220
    sge_FilledRect @221
    sge_FilledRectAlpha @222
    sge_FilledTrigon @223
    sge_FilledTrigonAlpha @224
    sge_FloodFill @225
    sge_GetPixel @226
    sge_GetRGB @227
    sge_HLine @228
    sge_HLineAlpha @229
    sge_Latin1_Uni @230
    sge_Line @231
    sge_LineAlpha @232
    sge_Lock_OFF @233
    sge_Lock_ON @234
    sge_MapAlpha @235
    sge_PutPixel @236
    sge_PutPixelAlpha @237
    sge_Random @238
    sge_Randomize @239
    sge_Rect @240
    sge_RectAlpha @241
    sge_SetError @242
    sge_SetupBWPalette @243
    sge_SetupRainbowPalette @244
    sge_TexturedLine @245
    sge_TexturedRect @246
    sge_TexturedTrigon @247
    sge_Trigon @248
    sge_TrigonAlpha @249
    sge_UpdateRect @250
    sge_Update_OFF @251
    sge_Update_ON @252
    sge_VLine @253
    sge_VLineAlpha @254
    sge_bbcheck @255
    sge_cmcheck @256
    sge_copy_surface @257
    sge_destroy_cmap @258
    sge_getLock @259
    sge_getUpdate @260
    sge_get_cx @261
    sge_get_cy @262
    sge_make_cmap @263
    sge_mcLine @264
    sge_mcLineAlpha @265
    sge_pPutPixel @266
    sge_read_block16 @267
    sge_read_block32 @268
    sge_read_block8 @269
    sge_rotate @270
    sge_rotate_scaled @271
    sge_rotate_scaled_surface @272
    sge_rotate_surface @273
    sge_rotate_xyscaled @274
    sge_set_cdata @275
    sge_transform @276
    sge_transform_surface @277
    sge_unset_cdata @278
    sge_write_block16 @279
    sge_write_block32 @280
    sge_write_block8 @281
